; Function Attrs: mustprogress uwtable
define noundef signext range(i8 0, 2) i8 @_ZNK6icu_778Calendar9isWeekendEv(ptr noundef nonnull align 8 dereferenceable(192) %0) unnamed_addr #1 align 2 {
  %2 = alloca i32, align 4
  call void @llvm.lifetime.start.p0(i64 4, ptr nonnull %2) #25
  store i32 0, ptr %2, align 4, !tbaa !13
  %3 = getelementptr inbounds nuw i8, ptr %0, i64 152
  %4 = load i8, ptr %3, align 8
  %5 = trunc i8 %4 to i1
  br i1 %5, label %_ZN6icu_778Calendar10updateTimeER10UErrorCode.exit._crit_edge.i.i, label %6

6:                                                ; preds = %1
  %7 = load ptr, ptr %0, align 8, !tbaa !15
  %8 = getelementptr inbounds nuw i8, ptr %7, i64 248
  %9 = load ptr, ptr %8, align 8
  call void %9(ptr noundef nonnull align 8 dereferenceable(192) %0, ptr noundef nonnull align 4 dereferenceable(4) %2)
  %10 = load i32, ptr %2, align 4, !tbaa !13
  %11 = icmp slt i32 %10, 1
  br i1 %11, label %_ZN6icu_778Calendar10updateTimeER10UErrorCode.exit.i.i, label %_ZNK6icu_778Calendar3getE19UCalendarDateFieldsR10UErrorCode.exit

_ZN6icu_778Calendar10updateTimeER10UErrorCode.exit.i.i: ; preds = %6
  %12 = load i8, ptr %3, align 8
  %13 = and i8 %12, 20
  %or.cond.not.i.i.i = icmp eq i8 %13, 4
  %.v.i.i.i = select i1 %or.cond.not.i.i.i, i8 -10, i8 -12
  %14 = and i8 %.v.i.i.i, %12
  %15 = or disjoint i8 %14, 1
  store i8 %15, ptr %3, align 8
  br label %_ZN6icu_778Calendar10updateTimeER10UErrorCode.exit._crit_edge.i.i

_ZN6icu_778Calendar10updateTimeER10UErrorCode.exit._crit_edge.i.i: ; preds = %_ZN6icu_778Calendar10updateTimeER10UErrorCode.exit.i.i, %1
  %16 = phi i8 [ %4, %1 ], [ %15, %_ZN6icu_778Calendar10updateTimeER10UErrorCode.exit.i.i ]
  %17 = and i8 %16, 2
  %.not7.i.i = icmp eq i8 %17, 0
  br i1 %.not7.i.i, label %18, label %_ZN6icu_778Calendar8completeER10UErrorCode.exit.thread14.i

18:                                               ; preds = %_ZN6icu_778Calendar10updateTimeER10UErrorCode.exit._crit_edge.i.i
  %19 = load ptr, ptr %0, align 8, !tbaa !15
  %20 = getelementptr inbounds nuw i8, ptr %19, i64 256
  %21 = load ptr, ptr %20, align 8
  call void %21(ptr noundef nonnull align 8 dereferenceable(192) %0, ptr noundef nonnull align 4 dereferenceable(4) %2)
  %22 = load i32, ptr %2, align 4, !tbaa !13
  %23 = icmp slt i32 %22, 1
  br i1 %23, label %_ZN6icu_778Calendar8completeER10UErrorCode.exit.i, label %_ZNK6icu_778Calendar3getE19UCalendarDateFieldsR10UErrorCode.exit

_ZN6icu_778Calendar8completeER10UErrorCode.exit.i: ; preds = %18
  %24 = load i8, ptr %3, align 8
  %25 = or i8 %24, 6
  store i8 %25, ptr %3, align 8
  br label %_ZN6icu_778Calendar8completeER10UErrorCode.exit.thread14.i

_ZN6icu_778Calendar8completeER10UErrorCode.exit.thread14.i: ; preds = %_ZN6icu_778Calendar8completeER10UErrorCode.exit.i, %_ZN6icu_778Calendar10updateTimeER10UErrorCode.exit._crit_edge.i.i
  %26 = getelementptr inbounds nuw i8, ptr %0, i64 36
  %27 = load i32, ptr %26, align 4, !tbaa !12
  br label %_ZNK6icu_778Calendar3getE19UCalendarDateFieldsR10UErrorCode.exit

_ZNK6icu_778Calendar3getE19UCalendarDateFieldsR10UErrorCode.exit: ; preds = %6, %18, %_ZN6icu_778Calendar8completeER10UErrorCode.exit.thread14.i
  %.0.i = phi i32 [ %27, %_ZN6icu_778Calendar8completeER10UErrorCode.exit.thread14.i ], [ 0, %18 ], [ 0, %6 ]
  %28 = load ptr, ptr %0, align 8, !tbaa !15
  %29 = getelementptr inbounds nuw i8, ptr %28, i64 192
  %30 = load ptr, ptr %29, align 8
  %31 = call noundef i32 %30(ptr noundef nonnull align 8 dereferenceable(192) %0, i32 noundef %.0.i, ptr noundef nonnull align 4 dereferenceable(4) %2)
  %32 = load i32, ptr %2, align 4, !tbaa !13
  %33 = icmp sgt i32 %32, 0
  br i1 %33, label %.thread, label %34

34:                                               ; preds = %_ZNK6icu_778Calendar3getE19UCalendarDateFieldsR10UErrorCode.exit
  switch i32 %31, label %.thread [
    i32 3, label %36
    i32 1, label %35
    i32 2, label %36
  ]

35:                                               ; preds = %34
  br label %.thread

36:                                               ; preds = %34, %34
  %37 = getelementptr inbounds nuw i8, ptr %0, i64 92
  %38 = load i32, ptr %37, align 4, !tbaa !12
  %39 = load ptr, ptr %0, align 8, !tbaa !15
  %40 = getelementptr inbounds nuw i8, ptr %39, i64 200
  %41 = load ptr, ptr %40, align 8
  %42 = call noundef i32 %41(ptr noundef nonnull align 8 dereferenceable(192) %0, i32 noundef %.0.i, ptr noundef nonnull align 4 dereferenceable(4) %2)
  %43 = load i32, ptr %2, align 4, !tbaa !13
  %44 = icmp sgt i32 %43, 0
  br i1 %44, label %.thread, label %45

45:                                               ; preds = %36
  %46 = icmp eq i32 %31, 2
  %47 = icmp slt i32 %38, %42
  %48 = xor i1 %46, %47
  %49 = zext i1 %48 to i8
  br label %.thread

.thread:                                          ; preds = %36, %_ZNK6icu_778Calendar3getE19UCalendarDateFieldsR10UErrorCode.exit, %34, %45, %35
  %.0 = phi i8 [ %49, %45 ], [ 1, %35 ], [ 0, %34 ], [ 0, %_ZNK6icu_778Calendar3getE19UCalendarDateFieldsR10UErrorCode.exit ], [ 0, %36 ]
  call void @llvm.lifetime.end.p0(i64 4, ptr nonnull %2) #25
  ret i8 %.0
}